Certificate:
    Data:
        Version: 3 (0x2)
        Serial Number:
            b1:4e:e9:85:89:cd:ee:34:ae:2a:65:be:ea:cd:e3:a6
        Signature Algorithm: sha256WithRSAEncryption
        Issuer: CN=localhost
        Validity
            Not Before: May  5 01:53:49 2019 GMT
            Not After : May  4 01:53:49 2020 GMT
        Subject: CN=localhost
        Subject Public Key Info:
            Public Key Algorithm: rsaEncryption
                RSA Public-Key: (2048 bit)
                Modulus:
                    00:c3:d3:bd:73:23:33:e3:ab:f9:7c:aa:9f:83:dd:
                    4b:e7:aa:88:63:d8:cf:6b:ed:61:e8:da:8d:00:19:
                    0f:6b:c2:3e:a8:21:cf:27:48:bc:ab:d9:7f:06:84:
                    dc:50:dc:f4:06:0d:57:c8:a1:df:af:a0:d4:e2:cf:
                    49:93:37:3b:15:29:0f:f0:36:e0:5f:64:35:93:da:
                    cd:84:5c:a0:cd:06:10:95:12:a6:ab:15:f8:b5:99:
                    9b:2d:11:d1:94:8d:20:8a:a1:05:03:37:4c:15:64:
                    f5:17:21:a7:ab:90:61:01:13:1a:69:68:b5:e3:45:
                    58:02:49:56:70:b7:78:a8:aa:a7:6a:68:f9:8d:a8:
                    fe:a1:db:c8:6c:0d:33:a8:d4:ac:32:93:aa:63:40:
                    72:60:ad:1a:dc:90:4d:db:a4:1a:7b:49:de:4c:53:
                    b4:55:ef:8b:e9:59:ed:fd:4e:3e:b2:e7:96:3e:b9:
                    2f:36:46:ec:2d:b6:d4:78:8b:c2:c2:cd:53:89:1a:
                    87:99:70:6f:ba:63:23:a9:17:65:48:ad:c2:ca:05:
                    f2:3c:22:06:33:2f:8a:90:96:b1:99:fd:40:53:17:
                    0f:7d:b1:8b:68:62:00:4b:13:00:87:1e:bb:a1:59:
                    02:cf:57:20:d0:82:60:70:51:8e:c0:df:45:05:a9:
                    46:2d
                Exponent: 65537 (0x10001)
        X509v3 extensions:
            X509v3 Basic Constraints: 
                CA:FALSE
            X509v3 Key Usage: critical
                Digital Signature
            X509v3 Subject Key Identifier: 
                86:E1:19:D9:F5:88:07:71:B3:44:09:4A:22:E7:6C:64:17:76:24:C0
    Signature Algorithm: sha256WithRSAEncryption
         54:29:6a:0e:8a:7f:43:f2:a4:f8:e6:da:f4:99:6d:0e:bc:4d:
         6c:b1:cf:42:55:c2:fb:e3:11:be:0c:fa:d2:7d:36:d2:84:24:
         ab:dc:a9:b4:5c:fb:29:4c:64:9d:b9:c0:fd:a2:89:4a:c7:80:
         fe:75:5b:73:77:75:16:2e:91:cd:3b:39:f1:85:af:fd:0b:95:
         69:7f:6a:4e:1e:be:e7:ec:92:3b:53:15:af:fd:9c:6a:82:95:
         08:2c:3e:f7:0f:ab:ba:c2:a9:0f:4b:3c:46:2c:e7:f0:cb:5e:
         17:af:02:c3:8d:d1:25:6c:38:a8:61:12:a5:34:f6:78:8b:75:
         15:e2:70:8e:1f:cd:1d:62:ab:06:13:8f:7c:35:c1:db:14:c9:
         5b:06:83:24:24:5e:d7:b1:2e:2c:ac:4c:8f:4b:4f:02:0a:b1:
         4f:94:76:d8:d4:54:1c:b7:dc:58:9d:68:77:5b:b2:f3:00:81:
         0c:3f:ab:6d:33:79:52:fe:4f:cc:fe:47:92:c2:a6:b3:43:6b:
         bf:0c:84:3e:79:44:cc:42:95:6b:e1:57:e1:ae:a0:cd:30:99:
         37:a2:a1:0a:32:b1:b8:6d:00:85:0b:ef:5b:1d:e8:fa:7c:c1:
         02:bf:0f:f9:34:06:a8:9e:67:e7:66:63:5d:13:d4:e5:28:49:
         29:69:b2:54
-----BEGIN CERTIFICATE-----
MIIC7zCCAdegAwIBAgIRALFO6YWJze40riplvurN46YwDQYJKoZIhvcNAQELBQAw
FDESMBAGA1UEAwwJbG9jYWxob3N0MB4XDTE5MDUwNTAxNTM0OVoXDTIwMDUwNDAx
NTM0OVowFDESMBAGA1UEAwwJbG9jYWxob3N0MIIBIjANBgkqhkiG9w0BAQEFAAOC
AQ8AMIIBCgKCAQEAw9O9cyMz46v5fKqfg91L56qIY9jPa+1h6NqNABkPa8I+qCHP
J0i8q9l/BoTcUNz0Bg1XyKHfr6DU4s9Jkzc7FSkP8DbgX2Q1k9rNhFygzQYQlRKm
qxX4tZmbLRHRlI0giqEFAzdMFWT1FyGnq5BhARMaaWi140VYAklWcLd4qKqnamj5
jaj+odvIbA0zqNSsMpOqY0ByYK0a3JBN26Qae0neTFO0Ve+L6Vnt/U4+sueWPrkv
NkbsLbbUeIvCws1TiRqHmXBvumMjqRdlSK3CygXyPCIGMy+KkJaxmf1AUxcPfbGL
aGIASxMAhx67oVkCz1cg0IJgcFGOwN9FBalGLQIDAQABozwwOjAJBgNVHRMEAjAA
MA4GA1UdDwEB/wQEAwIHgDAdBgNVHQ4EFgQUhuEZ2fWIB3GzRAlKIudsZBd2JMAw
DQYJKoZIhvcNAQELBQADggEBAFQpag6Kf0PypPjm2vSZbQ68TWyxz0JVwvvjEb4M
+tJ9NtKEJKvcqbRc+ylMZJ25wP2iiUrHgP51W3N3dRYukc07OfGFr/0LlWl/ak4e
vufskjtTFa/9nGqClQgsPvcPq7rCqQ9LPEYs5/DLXhevAsON0SVsOKhhEqU09niL
dRXicI4fzR1iqwYTj3w1wdsUyVsGgyQkXtexLiysTI9LTwIKsU+UdtjUVBy33Fid
aHdbsvMAgQw/q20zeVL+T8z+R5LCprNDa78MhD55RMxClWvhV+GuoM0wmTeioQoy
sbhtAIUL71sd6Pp8wQK/D/k0BqieZ+dmY10T1OUoSSlpslQ=
-----END CERTIFICATE-----
