Certificate:
    Data:
        Version: 3 (0x2)
        Serial Number:
            b1:4e:e9:85:89:cd:ee:34:ae:2a:65:be:ea:cd:e3:a5
        Signature Algorithm: sha256WithRSAEncryption
        Issuer: CN=localhost
        Validity
            Not Before: May  5 01:53:44 2019 GMT
            Not After : May  4 01:53:44 2020 GMT
        Subject: CN=localhost
        Subject Public Key Info:
            Public Key Algorithm: rsaEncryption
                RSA Public-Key: (2048 bit)
                Modulus:
                    00:bc:77:43:7e:d9:70:17:77:34:47:c6:b3:78:e2:
                    8e:6a:b2:19:39:26:63:90:87:77:48:9a:cb:27:54:
                    f8:8f:35:9f:a4:d2:a0:ec:e5:16:46:b8:56:ab:8e:
                    a1:8e:cf:40:34:3e:3d:c0:22:2e:a5:2a:db:25:cd:
                    b2:fb:64:43:9d:a2:71:7e:a6:26:17:20:99:8e:0a:
                    22:e7:94:35:8f:7f:2d:16:65:36:98:d5:66:c7:80:
                    f4:1a:93:14:66:2d:80:83:b1:06:90:20:a4:56:3d:
                    6f:ba:be:62:54:21:2b:17:62:3f:ed:a6:00:5a:84:
                    f8:78:a3:e5:c3:89:5e:a8:fe:e4:00:00:f5:4a:2e:
                    10:37:f2:0d:56:89:82:a9:43:4a:af:3d:a8:8a:18:
                    03:a4:93:89:85:b8:90:d4:29:81:a0:c7:d0:12:ce:
                    c0:c0:21:ba:7e:96:52:d4:91:2f:d5:58:37:b5:e7:
                    9b:66:57:5d:06:78:c4:6a:3d:15:aa:91:b1:77:19:
                    5b:05:89:01:06:68:b2:dd:1b:ef:4e:a3:2f:40:71:
                    88:4c:84:f4:41:56:f8:2e:65:d7:9e:28:3a:b9:2b:
                    a7:f8:1c:c7:a6:69:4b:0f:d7:6c:a3:71:1f:5a:52:
                    f7:2a:a9:af:e7:7f:02:44:de:9a:77:32:e3:c4:b8:
                    d0:d9
                Exponent: 65537 (0x10001)
        X509v3 extensions:
            X509v3 Basic Constraints: critical
                CA:TRUE
            X509v3 Key Usage: critical
                Key Encipherment, Certificate Sign
            X509v3 Subject Key Identifier: 
                46:28:CE:CF:87:21:D3:BA:DE:4D:4A:90:1F:53:4A:32:FF:57:76:FC
    Signature Algorithm: sha256WithRSAEncryption
         1d:0c:3c:94:e4:4b:fe:64:15:41:4d:c6:b6:b3:7d:5e:d0:1a:
         0b:17:cb:0f:58:8d:8e:51:b1:f3:fc:cb:92:45:89:d8:5a:d1:
         a2:de:32:84:5b:af:a6:36:ff:4f:43:25:11:c2:0d:fb:d2:f9:
         ef:08:a7:93:60:60:05:f2:00:c6:f2:8a:87:ce:7d:37:36:ae:
         3a:d6:9f:5a:b8:a3:7d:cb:e6:9a:bf:54:cb:4e:07:d0:92:50:
         78:20:17:7b:55:11:94:ca:db:ca:61:7d:4a:a8:65:97:ac:81:
         6c:e6:b0:58:51:f0:f1:9e:56:c3:82:81:58:3a:88:c5:91:3f:
         fd:15:af:26:11:06:c1:9b:7f:21:56:3c:e7:89:83:18:e4:0f:
         25:7b:96:b9:56:8d:0e:31:b1:d6:0c:71:4d:40:ce:7d:f5:02:
         90:19:61:33:ef:bf:bb:b2:1a:a6:f8:da:27:fb:72:7f:f8:b9:
         31:48:99:b1:8f:6c:25:14:0a:2c:c0:64:5f:62:cd:c2:e6:7f:
         1e:67:fe:65:b5:ad:33:76:23:4e:24:45:39:f7:1b:da:2c:9f:
         96:55:63:d6:6b:41:b1:98:af:dc:6b:36:93:db:11:60:24:ed:
         c1:37:be:40:94:ff:93:fb:3b:a1:53:42:13:a7:a0:fd:88:9a:
         27:7c:fe:51
-----BEGIN CERTIFICATE-----
MIIC9TCCAd2gAwIBAgIRALFO6YWJze40riplvurN46UwDQYJKoZIhvcNAQELBQAw
FDESMBAGA1UEAwwJbG9jYWxob3N0MB4XDTE5MDUwNTAxNTM0NFoXDTIwMDUwNDAx
NTM0NFowFDESMBAGA1UEAwwJbG9jYWxob3N0MIIBIjANBgkqhkiG9w0BAQEFAAOC
AQ8AMIIBCgKCAQEAvHdDftlwF3c0R8azeOKOarIZOSZjkId3SJrLJ1T4jzWfpNKg
7OUWRrhWq46hjs9AND49wCIupSrbJc2y+2RDnaJxfqYmFyCZjgoi55Q1j38tFmU2
mNVmx4D0GpMUZi2Ag7EGkCCkVj1vur5iVCErF2I/7aYAWoT4eKPlw4leqP7kAAD1
Si4QN/INVomCqUNKrz2oihgDpJOJhbiQ1CmBoMfQEs7AwCG6fpZS1JEv1Vg3teeb
ZlddBnjEaj0VqpGxdxlbBYkBBmiy3RvvTqMvQHGITIT0QVb4LmXXnig6uSun+BzH
pmlLD9dso3EfWlL3Kqmv538CRN6adzLjxLjQ2QIDAQABo0IwQDAPBgNVHRMBAf8E
BTADAQH/MA4GA1UdDwEB/wQEAwICJDAdBgNVHQ4EFgQURijOz4ch07reTUqQH1NK
Mv9XdvwwDQYJKoZIhvcNAQELBQADggEBAB0MPJTkS/5kFUFNxrazfV7QGgsXyw9Y
jY5RsfP8y5JFidha0aLeMoRbr6Y2/09DJRHCDfvS+e8Ip5NgYAXyAMbyiofOfTc2
rjrWn1q4o33L5pq/VMtOB9CSUHggF3tVEZTK28phfUqoZZesgWzmsFhR8PGeVsOC
gVg6iMWRP/0VryYRBsGbfyFWPOeJgxjkDyV7lrlWjQ4xsdYMcU1Azn31ApAZYTPv
v7uyGqb42if7cn/4uTFImbGPbCUUCizAZF9izcLmfx5n/mW1rTN2I04kRTn3G9os
n5ZVY9ZrQbGYr9xrNpPbEWAk7cE3vkCU/5P7O6FTQhOnoP2Imid8/lE=
-----END CERTIFICATE-----
